target datalayout = "e-m:e-p270:32:32-p271:32:32-p272:64:64-i64:64-i128:128-f80:128-n8:16:32:64-S128"
target triple = "x86_64-pc-linux-gnu"

%struct.PLpgSQL_function = type { ptr, i32, i32, %struct.ItemPointerData, i32, i32, ptr, ptr, i32, i32, i8, i8, i8, i8, i8, i8, i32, [100 x i32], i32, i32, i32, i32, i32, i8, i32, i32, i32, ptr, i64, ptr, i32, i8, i8, ptr, i64 }
%struct.ItemPointerData = type { %struct.BlockIdData, i16 }
%struct.BlockIdData = type { i16, i16 }
%struct.PLpgSQL_stmt_fetch = type { i32, i32, i32, ptr, i32, i32, i64, ptr, i8, i8 }

@plpgsql_curr_compile = external global ptr, align 8
@.str.48 = private unnamed_addr constant [38 x i8] c"unexpected end of function definition\00", align 1
@.str.49 = private unnamed_addr constant [5 x i8] c"next\00", align 1
@.str.97 = private unnamed_addr constant [6 x i8] c"prior\00", align 1
@.str.98 = private unnamed_addr constant [6 x i8] c"first\00", align 1
@.str.99 = private unnamed_addr constant [5 x i8] c"last\00", align 1
@.str.100 = private unnamed_addr constant [9 x i8] c"absolute\00", align 1
@.str.101 = private unnamed_addr constant [11 x i8] c"FROM or IN\00", align 1
@.str.102 = private unnamed_addr constant [9 x i8] c"relative\00", align 1
@.str.103 = private unnamed_addr constant [4 x i8] c"all\00", align 1
@.str.104 = private unnamed_addr constant [8 x i8] c"forward\00", align 1
@.str.105 = private unnamed_addr constant [9 x i8] c"backward\00", align 1
@.str.106 = private unnamed_addr constant [20 x i8] c"expected FROM or IN\00", align 1

; Function Attrs: nounwind uwtable
define internal ptr @read_sql_expression2(i32 noundef %0, i32 noundef %1, ptr noundef %2, ptr noundef %3, ptr noundef %4, ptr noundef %5, ptr noundef %6) #0 {
  %8 = alloca i32, align 4
  %9 = alloca i32, align 4
  %10 = alloca ptr, align 8
  %11 = alloca ptr, align 8
  %12 = alloca ptr, align 8
  %13 = alloca ptr, align 8
  %14 = alloca ptr, align 8
  store i32 %0, ptr %8, align 4
  store i32 %1, ptr %9, align 4
  store ptr %2, ptr %10, align 8
  store ptr %3, ptr %11, align 8
  store ptr %4, ptr %12, align 8
  store ptr %5, ptr %13, align 8
  store ptr %6, ptr %14, align 8
  %15 = load i32, ptr %8, align 4
  %16 = load i32, ptr %9, align 4
  %17 = load ptr, ptr %10, align 8
  %18 = load ptr, ptr %11, align 8
  %19 = load ptr, ptr %12, align 8
  %20 = load ptr, ptr %13, align 8
  %21 = load ptr, ptr %14, align 8
  %22 = call ptr @read_sql_construct(i32 noundef %15, i32 noundef %16, i32 noundef 0, ptr noundef %17, i32 noundef 2, i1 noundef zeroext true, i1 noundef zeroext true, ptr noundef null, ptr noundef %18, ptr noundef %19, ptr noundef %20, ptr noundef %21)
  ret ptr %22
}

; Function Attrs: nounwind uwtable
define internal ptr @read_fetch_direction(ptr noundef %0, ptr noundef %1, ptr noundef %2) #0 {
  %4 = alloca ptr, align 8
  %5 = alloca ptr, align 8
  %6 = alloca ptr, align 8
  %7 = alloca ptr, align 8
  %8 = alloca i32, align 4
  %9 = alloca i8, align 1
  store ptr %0, ptr %4, align 8
  store ptr %1, ptr %5, align 8
  store ptr %2, ptr %6, align 8
  call void @llvm.lifetime.start.p0(i64 8, ptr %7) #10
  call void @llvm.lifetime.start.p0(i64 4, ptr %8) #10
  call void @llvm.lifetime.start.p0(i64 1, ptr %9) #10
  store i8 1, ptr %9, align 1
  %10 = call ptr @palloc0(i64 noundef 56)
  store ptr %10, ptr %7, align 8
  %11 = load ptr, ptr %7, align 8
  %12 = getelementptr inbounds nuw %struct.PLpgSQL_stmt_fetch, ptr %11, i32 0, i32 0
  store i32 21, ptr %12, align 8
  %13 = load ptr, ptr @plpgsql_curr_compile, align 8
  %14 = getelementptr inbounds nuw %struct.PLpgSQL_function, ptr %13, i32 0, i32 30
  %15 = load i32, ptr %14, align 8
  %16 = add i32 %15, 1
  store i32 %16, ptr %14, align 8
  %17 = load ptr, ptr %7, align 8
  %18 = getelementptr inbounds nuw %struct.PLpgSQL_stmt_fetch, ptr %17, i32 0, i32 2
  store i32 %16, ptr %18, align 8
  %19 = load ptr, ptr %7, align 8
  %20 = getelementptr inbounds nuw %struct.PLpgSQL_stmt_fetch, ptr %19, i32 0, i32 5
  store i32 0, ptr %20, align 4
  %21 = load ptr, ptr %7, align 8
  %22 = getelementptr inbounds nuw %struct.PLpgSQL_stmt_fetch, ptr %21, i32 0, i32 6
  store i64 1, ptr %22, align 8
  %23 = load ptr, ptr %7, align 8
  %24 = getelementptr inbounds nuw %struct.PLpgSQL_stmt_fetch, ptr %23, i32 0, i32 7
  store ptr null, ptr %24, align 8
  %25 = load ptr, ptr %7, align 8
  %26 = getelementptr inbounds nuw %struct.PLpgSQL_stmt_fetch, ptr %25, i32 0, i32 9
  store i8 0, ptr %26, align 1
  %27 = load ptr, ptr %4, align 8
  %28 = load ptr, ptr %5, align 8
  %29 = load ptr, ptr %6, align 8
  %30 = call i32 @plpgsql_yylex(ptr noundef %27, ptr noundef %28, ptr noundef %29)
  store i32 %30, ptr %8, align 4
  %31 = load i32, ptr %8, align 4
  %32 = icmp eq i32 %31, 0
  br i1 %32, label %33, label %36

33:                                               ; preds = %3
  %34 = load ptr, ptr %5, align 8
  %35 = load ptr, ptr %6, align 8
  call void @plpgsql_yyerror(ptr noundef %34, ptr noundef null, ptr noundef %35, ptr noundef @.str.48) #13
  unreachable

36:                                               ; preds = %3
  %37 = load i32, ptr %8, align 4
  %38 = load ptr, ptr %4, align 8
  %39 = call zeroext i1 @tok_is_keyword(i32 noundef %37, ptr noundef %38, i32 noundef 341, ptr noundef @.str.49)
  br i1 %39, label %40, label %41

40:                                               ; preds = %36
  br label %157

41:                                               ; preds = %36
  %42 = load i32, ptr %8, align 4
  %43 = load ptr, ptr %4, align 8
  %44 = call zeroext i1 @tok_is_keyword(i32 noundef %42, ptr noundef %43, i32 noundef 357, ptr noundef @.str.97)
  br i1 %44, label %45, label %48

45:                                               ; preds = %41
  %46 = load ptr, ptr %7, align 8
  %47 = getelementptr inbounds nuw %struct.PLpgSQL_stmt_fetch, ptr %46, i32 0, i32 5
  store i32 1, ptr %47, align 4
  br label %156

48:                                               ; preds = %41
  %49 = load i32, ptr %8, align 4
  %50 = load ptr, ptr %4, align 8
  %51 = call zeroext i1 @tok_is_keyword(i32 noundef %49, ptr noundef %50, i32 noundef 320, ptr noundef @.str.98)
  br i1 %51, label %52, label %55

52:                                               ; preds = %48
  %53 = load ptr, ptr %7, align 8
  %54 = getelementptr inbounds nuw %struct.PLpgSQL_stmt_fetch, ptr %53, i32 0, i32 5
  store i32 2, ptr %54, align 4
  br label %155

55:                                               ; preds = %48
  %56 = load i32, ptr %8, align 4
  %57 = load ptr, ptr %4, align 8
  %58 = call zeroext i1 @tok_is_keyword(i32 noundef %56, ptr noundef %57, i32 noundef 334, ptr noundef @.str.99)
  br i1 %58, label %59, label %64

59:                                               ; preds = %55
  %60 = load ptr, ptr %7, align 8
  %61 = getelementptr inbounds nuw %struct.PLpgSQL_stmt_fetch, ptr %60, i32 0, i32 5
  store i32 2, ptr %61, align 4
  %62 = load ptr, ptr %7, align 8
  %63 = getelementptr inbounds nuw %struct.PLpgSQL_stmt_fetch, ptr %62, i32 0, i32 6
  store i64 -1, ptr %63, align 8
  br label %154

64:                                               ; preds = %55
  %65 = load i32, ptr %8, align 4
  %66 = load ptr, ptr %4, align 8
  %67 = call zeroext i1 @tok_is_keyword(i32 noundef %65, ptr noundef %66, i32 noundef 280, ptr noundef @.str.100)
  br i1 %67, label %68, label %77

68:                                               ; preds = %64
  %69 = load ptr, ptr %7, align 8
  %70 = getelementptr inbounds nuw %struct.PLpgSQL_stmt_fetch, ptr %69, i32 0, i32 5
  store i32 2, ptr %70, align 4
  %71 = load ptr, ptr %4, align 8
  %72 = load ptr, ptr %5, align 8
  %73 = load ptr, ptr %6, align 8
  %74 = call ptr @read_sql_expression2(i32 noundef 324, i32 noundef 329, ptr noundef @.str.101, ptr noundef null, ptr noundef %71, ptr noundef %72, ptr noundef %73)
  %75 = load ptr, ptr %7, align 8
  %76 = getelementptr inbounds nuw %struct.PLpgSQL_stmt_fetch, ptr %75, i32 0, i32 7
  store ptr %74, ptr %76, align 8
  store i8 0, ptr %9, align 1
  br label %153

77:                                               ; preds = %64
  %78 = load i32, ptr %8, align 4
  %79 = load ptr, ptr %4, align 8
  %80 = call zeroext i1 @tok_is_keyword(i32 noundef %78, ptr noundef %79, i32 noundef 360, ptr noundef @.str.102)
  br i1 %80, label %81, label %90

81:                                               ; preds = %77
  %82 = load ptr, ptr %7, align 8
  %83 = getelementptr inbounds nuw %struct.PLpgSQL_stmt_fetch, ptr %82, i32 0, i32 5
  store i32 3, ptr %83, align 4
  %84 = load ptr, ptr %4, align 8
  %85 = load ptr, ptr %5, align 8
  %86 = load ptr, ptr %6, align 8
  %87 = call ptr @read_sql_expression2(i32 noundef 324, i32 noundef 329, ptr noundef @.str.101, ptr noundef null, ptr noundef %84, ptr noundef %85, ptr noundef %86)
  %88 = load ptr, ptr %7, align 8
  %89 = getelementptr inbounds nuw %struct.PLpgSQL_stmt_fetch, ptr %88, i32 0, i32 7
  store ptr %87, ptr %89, align 8
  store i8 0, ptr %9, align 1
  br label %152

90:                                               ; preds = %77
  %91 = load i32, ptr %8, align 4
  %92 = load ptr, ptr %4, align 8
  %93 = call zeroext i1 @tok_is_keyword(i32 noundef %91, ptr noundef %92, i32 noundef 282, ptr noundef @.str.103)
  br i1 %93, label %94, label %99

94:                                               ; preds = %90
  %95 = load ptr, ptr %7, align 8
  %96 = getelementptr inbounds nuw %struct.PLpgSQL_stmt_fetch, ptr %95, i32 0, i32 6
  store i64 9223372036854775807, ptr %96, align 8
  %97 = load ptr, ptr %7, align 8
  %98 = getelementptr inbounds nuw %struct.PLpgSQL_stmt_fetch, ptr %97, i32 0, i32 9
  store i8 1, ptr %98, align 1
  br label %151

99:                                               ; preds = %90
  %100 = load i32, ptr %8, align 4
  %101 = load ptr, ptr %4, align 8
  %102 = call zeroext i1 @tok_is_keyword(i32 noundef %100, ptr noundef %101, i32 noundef 323, ptr noundef @.str.104)
  br i1 %102, label %103, label %108

103:                                              ; preds = %99
  %104 = load ptr, ptr %7, align 8
  %105 = load ptr, ptr %4, align 8
  %106 = load ptr, ptr %5, align 8
  %107 = load ptr, ptr %6, align 8
  call void @complete_direction(ptr noundef %104, ptr noundef %9, ptr noundef %105, ptr noundef %106, ptr noundef %107)
  br label %150

108:                                              ; preds = %99
  %109 = load i32, ptr %8, align 4
  %110 = load ptr, ptr %4, align 8
  %111 = call zeroext i1 @tok_is_keyword(i32 noundef %109, ptr noundef %110, i32 noundef 286, ptr noundef @.str.105)
  br i1 %111, label %112, label %119

112:                                              ; preds = %108
  %113 = load ptr, ptr %7, align 8
  %114 = getelementptr inbounds nuw %struct.PLpgSQL_stmt_fetch, ptr %113, i32 0, i32 5
  store i32 1, ptr %114, align 4
  %115 = load ptr, ptr %7, align 8
  %116 = load ptr, ptr %4, align 8
  %117 = load ptr, ptr %5, align 8
  %118 = load ptr, ptr %6, align 8
  call void @complete_direction(ptr noundef %115, ptr noundef %9, ptr noundef %116, ptr noundef %117, ptr noundef %118)
  br label %149

119:                                              ; preds = %108
  %120 = load i32, ptr %8, align 4
  %121 = icmp eq i32 %120, 324
  br i1 %121, label %125, label %122

122:                                              ; preds = %119
  %123 = load i32, ptr %8, align 4
  %124 = icmp eq i32 %123, 329
  br i1 %124, label %125, label %126

125:                                              ; preds = %122, %119
  store i8 0, ptr %9, align 1
  br label %148

126:                                              ; preds = %122
  %127 = load i32, ptr %8, align 4
  %128 = icmp eq i32 %127, 277
  br i1 %128, label %129, label %134

129:                                              ; preds = %126
  %130 = load i32, ptr %8, align 4
  %131 = load ptr, ptr %4, align 8
  %132 = load ptr, ptr %5, align 8
  %133 = load ptr, ptr %6, align 8
  call void @plpgsql_push_back_token(i32 noundef %130, ptr noundef %131, ptr noundef %132, ptr noundef %133)
  store i8 0, ptr %9, align 1
  br label %147

134:                                              ; preds = %126
  %135 = load i32, ptr %8, align 4
  %136 = load ptr, ptr %4, align 8
  %137 = load ptr, ptr %5, align 8
  %138 = load ptr, ptr %6, align 8
  call void @plpgsql_push_back_token(i32 noundef %135, ptr noundef %136, ptr noundef %137, ptr noundef %138)
  %139 = load ptr, ptr %4, align 8
  %140 = load ptr, ptr %5, align 8
  %141 = load ptr, ptr %6, align 8
  %142 = call ptr @read_sql_expression2(i32 noundef 324, i32 noundef 329, ptr noundef @.str.101, ptr noundef null, ptr noundef %139, ptr noundef %140, ptr noundef %141)
  %143 = load ptr, ptr %7, align 8
  %144 = getelementptr inbounds nuw %struct.PLpgSQL_stmt_fetch, ptr %143, i32 0, i32 7
  store ptr %142, ptr %144, align 8
  %145 = load ptr, ptr %7, align 8
  %146 = getelementptr inbounds nuw %struct.PLpgSQL_stmt_fetch, ptr %145, i32 0, i32 9
  store i8 1, ptr %146, align 1
  store i8 0, ptr %9, align 1
  br label %147

147:                                              ; preds = %134, %129
  br label %148

148:                                              ; preds = %147, %125
  br label %149

149:                                              ; preds = %148, %112
  br label %150

150:                                              ; preds = %149, %103
  br label %151

151:                                              ; preds = %150, %94
  br label %152

152:                                              ; preds = %151, %81
  br label %153

153:                                              ; preds = %152, %68
  br label %154

154:                                              ; preds = %153, %59
  br label %155

155:                                              ; preds = %154, %52
  br label %156

156:                                              ; preds = %155, %45
  br label %157

157:                                              ; preds = %156, %40
  %158 = load i8, ptr %9, align 1, !range !3, !noundef !4
  %159 = trunc i8 %158 to i1
  br i1 %159, label %160, label %174

160:                                              ; preds = %157
  %161 = load ptr, ptr %4, align 8
  %162 = load ptr, ptr %5, align 8
  %163 = load ptr, ptr %6, align 8
  %164 = call i32 @plpgsql_yylex(ptr noundef %161, ptr noundef %162, ptr noundef %163)
  store i32 %164, ptr %8, align 4
  %165 = load i32, ptr %8, align 4
  %166 = icmp ne i32 %165, 324
  br i1 %166, label %167, label %173

167:                                              ; preds = %160
  %168 = load i32, ptr %8, align 4
  %169 = icmp ne i32 %168, 329
  br i1 %169, label %170, label %173

170:                                              ; preds = %167
  %171 = load ptr, ptr %5, align 8
  %172 = load ptr, ptr %6, align 8
  call void @plpgsql_yyerror(ptr noundef %171, ptr noundef null, ptr noundef %172, ptr noundef @.str.106) #13
  unreachable

173:                                              ; preds = %167, %160
  br label %174

174:                                              ; preds = %173, %157
  %175 = load ptr, ptr %7, align 8
  call void @llvm.lifetime.end.p0(i64 1, ptr %9) #10
  call void @llvm.lifetime.end.p0(i64 4, ptr %8) #10
  call void @llvm.lifetime.end.p0(i64 8, ptr %7) #10
  ret ptr %175
}