; Function Attrs: nounwind uwtable
define internal fastcc noundef ptr @read_fetch_direction(ptr noundef nonnull %0, ptr noundef nonnull %1, ptr noundef %2) unnamed_addr #0 {
  %4 = alloca i8, align 1
  call void @llvm.lifetime.start.p0(i64 1, ptr nonnull %4) #12
  store i8 1, ptr %4, align 1
  %5 = tail call ptr @palloc0(i64 noundef 56) #12
  store i32 21, ptr %5, align 8
  %6 = load ptr, ptr @plpgsql_curr_compile, align 8
  %7 = getelementptr inbounds nuw i8, ptr %6, i64 528
  %8 = load i32, ptr %7, align 8
  %9 = add i32 %8, 1
  store i32 %9, ptr %7, align 8
  %10 = getelementptr inbounds nuw i8, ptr %5, i64 8
  store i32 %9, ptr %10, align 8
  %11 = getelementptr inbounds nuw i8, ptr %5, i64 28
  store i32 0, ptr %11, align 4
  %12 = getelementptr inbounds nuw i8, ptr %5, i64 32
  store i64 1, ptr %12, align 8
  %13 = getelementptr inbounds nuw i8, ptr %5, i64 40
  store ptr null, ptr %13, align 8
  %14 = getelementptr inbounds nuw i8, ptr %5, i64 49
  store i8 0, ptr %14, align 1
  %15 = tail call i32 @plpgsql_yylex(ptr noundef nonnull %0, ptr noundef nonnull %1, ptr noundef %2) #12
  switch i32 %15, label %tok_is_keyword.exit95 [
    i32 0, label %16
    i32 341, label %tok_is_keyword.exit.thread
    i32 277, label %17
    i32 357, label %33
    i32 320, label %40
    i32 334, label %47
    i32 280, label %54
    i32 360, label %62
  ]

16:                                               ; preds = %3
  tail call void @plpgsql_yyerror(ptr noundef nonnull %1, ptr noundef null, ptr noundef %2, ptr noundef nonnull @.str.48) #15
  unreachable

17:                                               ; preds = %3
  %18 = getelementptr inbounds nuw i8, ptr %0, i64 16
  %19 = load i8, ptr %18, align 8, !range !3, !noundef !4
  %20 = trunc nuw i8 %19 to i1
  br i1 %20, label %tok_is_keyword.exit95, label %21

21:                                               ; preds = %17
  %22 = getelementptr inbounds nuw i8, ptr %0, i64 8
  %23 = load ptr, ptr %22, align 8
  %.not.i = icmp eq ptr %23, null
  br i1 %.not.i, label %27, label %24

24:                                               ; preds = %21
  %25 = tail call i32 @strcmp(ptr noundef nonnull dereferenceable(1) %23, ptr noundef nonnull dereferenceable(5) @.str.49) #13
  %26 = icmp eq i32 %25, 0
  br i1 %26, label %tok_is_keyword.exit.thread, label %27

27:                                               ; preds = %24, %21
  %28 = getelementptr inbounds nuw i8, ptr %0, i64 8
  %29 = load ptr, ptr %28, align 8
  %.not.i82 = icmp eq ptr %29, null
  br i1 %.not.i82, label %34, label %30

30:                                               ; preds = %27
  %31 = tail call i32 @strcmp(ptr noundef nonnull dereferenceable(1) %29, ptr noundef nonnull dereferenceable(6) @.str.97) #13
  %32 = icmp eq i32 %31, 0
  br i1 %32, label %33, label %34

33:                                               ; preds = %3, %30
  store i32 1, ptr %11, align 4
  br label %tok_is_keyword.exit.thread

34:                                               ; preds = %30, %27
  %35 = getelementptr inbounds nuw i8, ptr %0, i64 8
  %36 = load ptr, ptr %35, align 8
  %.not.i85 = icmp eq ptr %36, null
  br i1 %.not.i85, label %41, label %37

37:                                               ; preds = %34
  %38 = tail call i32 @strcmp(ptr noundef nonnull dereferenceable(1) %36, ptr noundef nonnull dereferenceable(6) @.str.98) #13
  %39 = icmp eq i32 %38, 0
  br i1 %39, label %40, label %41

40:                                               ; preds = %3, %37
  store i32 2, ptr %11, align 4
  br label %tok_is_keyword.exit.thread

41:                                               ; preds = %37, %34
  %42 = getelementptr inbounds nuw i8, ptr %0, i64 8
  %43 = load ptr, ptr %42, align 8
  %.not.i88 = icmp eq ptr %43, null
  br i1 %.not.i88, label %48, label %44

44:                                               ; preds = %41
  %45 = tail call i32 @strcmp(ptr noundef nonnull dereferenceable(1) %43, ptr noundef nonnull dereferenceable(5) @.str.99) #13
  %46 = icmp eq i32 %45, 0
  br i1 %46, label %47, label %48

47:                                               ; preds = %3, %44
  store i32 2, ptr %11, align 4
  store i64 -1, ptr %12, align 8
  br label %tok_is_keyword.exit.thread

48:                                               ; preds = %44, %41
  %49 = getelementptr inbounds nuw i8, ptr %0, i64 8
  %50 = load ptr, ptr %49, align 8
  %.not.i91 = icmp eq ptr %50, null
  br i1 %.not.i91, label %56, label %51

51:                                               ; preds = %48
  %52 = tail call i32 @strcmp(ptr noundef nonnull dereferenceable(1) %50, ptr noundef nonnull dereferenceable(9) @.str.100) #13
  %53 = icmp eq i32 %52, 0
  br i1 %53, label %54, label %56

54:                                               ; preds = %3, %51
  store i32 2, ptr %11, align 4
  %55 = tail call fastcc ptr @read_sql_construct(i32 noundef 324, i32 noundef 329, i32 noundef 0, ptr noundef nonnull @.str.101, i32 noundef 2, i1 noundef zeroext true, i1 noundef zeroext true, ptr noundef null, ptr noundef null, ptr noundef nonnull %0, ptr noundef nonnull %1, ptr noundef %2)
  store ptr %55, ptr %13, align 8
  store i8 0, ptr %4, align 1
  br label %tok_is_keyword.exit.thread

56:                                               ; preds = %51, %48
  %57 = getelementptr inbounds nuw i8, ptr %0, i64 8
  %58 = load ptr, ptr %57, align 8
  %.not.i94 = icmp eq ptr %58, null
  br i1 %.not.i94, label %tok_is_keyword.exit95, label %59

59:                                               ; preds = %56
  %60 = tail call i32 @strcmp(ptr noundef nonnull dereferenceable(1) %58, ptr noundef nonnull dereferenceable(9) @.str.102) #13
  %61 = icmp eq i32 %60, 0
  br i1 %61, label %62, label %tok_is_keyword.exit95

62:                                               ; preds = %3, %59
  store i32 3, ptr %11, align 4
  %63 = tail call fastcc ptr @read_sql_construct(i32 noundef 324, i32 noundef 329, i32 noundef 0, ptr noundef nonnull @.str.101, i32 noundef 2, i1 noundef zeroext true, i1 noundef zeroext true, ptr noundef null, ptr noundef null, ptr noundef nonnull %0, ptr noundef nonnull %1, ptr noundef %2)
  store ptr %63, ptr %13, align 8
  store i8 0, ptr %4, align 1
  br label %tok_is_keyword.exit.thread

tok_is_keyword.exit95:                            ; preds = %17, %3, %59, %56
  %64 = tail call fastcc zeroext i1 @tok_is_keyword(i32 noundef %15, ptr noundef %0, i32 noundef 282, ptr noundef nonnull @.str.103)
  br i1 %64, label %65, label %66

65:                                               ; preds = %tok_is_keyword.exit95
  store i64 9223372036854775807, ptr %12, align 8
  store i8 1, ptr %14, align 1
  br label %tok_is_keyword.exit.thread

66:                                               ; preds = %tok_is_keyword.exit95
  %67 = tail call fastcc zeroext i1 @tok_is_keyword(i32 noundef %15, ptr noundef %0, i32 noundef 323, ptr noundef nonnull @.str.104)
  br i1 %67, label %68, label %69

68:                                               ; preds = %66
  call fastcc void @complete_direction(ptr noundef nonnull %5, ptr noundef %4, ptr noundef %0, ptr noundef %1, ptr noundef %2)
  br label %tok_is_keyword.exit.thread

69:                                               ; preds = %66
  %70 = tail call fastcc zeroext i1 @tok_is_keyword(i32 noundef %15, ptr noundef %0, i32 noundef 286, ptr noundef nonnull @.str.105)
  br i1 %70, label %71, label %72

71:                                               ; preds = %69
  store i32 1, ptr %11, align 4
  call fastcc void @complete_direction(ptr noundef nonnull %5, ptr noundef %4, ptr noundef %0, ptr noundef %1, ptr noundef %2)
  br label %tok_is_keyword.exit.thread

72:                                               ; preds = %69
  switch i32 %15, label %75 [
    i32 329, label %73
    i32 324, label %73
    i32 277, label %74
  ]

73:                                               ; preds = %72, %72
  store i8 0, ptr %4, align 1
  br label %tok_is_keyword.exit.thread

74:                                               ; preds = %72
  tail call void @plpgsql_push_back_token(i32 noundef 277, ptr noundef nonnull %0, ptr noundef nonnull %1, ptr noundef %2) #12
  store i8 0, ptr %4, align 1
  br label %tok_is_keyword.exit.thread

75:                                               ; preds = %72
  tail call void @plpgsql_push_back_token(i32 noundef %15, ptr noundef nonnull %0, ptr noundef nonnull %1, ptr noundef %2) #12
  %76 = tail call fastcc ptr @read_sql_construct(i32 noundef 324, i32 noundef 329, i32 noundef 0, ptr noundef nonnull @.str.101, i32 noundef 2, i1 noundef zeroext true, i1 noundef zeroext true, ptr noundef null, ptr noundef null, ptr noundef nonnull %0, ptr noundef nonnull %1, ptr noundef %2)
  store ptr %76, ptr %13, align 8
  store i8 1, ptr %14, align 1
  store i8 0, ptr %4, align 1
  br label %tok_is_keyword.exit.thread

tok_is_keyword.exit.thread:                       ; preds = %3, %24, %33, %47, %62, %68, %73, %75, %74, %71, %65, %54, %40
  %77 = load i8, ptr %4, align 1, !range !3, !noundef !4
  %78 = trunc nuw i8 %77 to i1
  br i1 %78, label %79, label %82

79:                                               ; preds = %tok_is_keyword.exit.thread
  %80 = tail call i32 @plpgsql_yylex(ptr noundef nonnull %0, ptr noundef nonnull %1, ptr noundef %2) #12
  switch i32 %80, label %81 [
    i32 329, label %82
    i32 324, label %82
  ]

81:                                               ; preds = %79
  tail call void @plpgsql_yyerror(ptr noundef nonnull %1, ptr noundef null, ptr noundef %2, ptr noundef nonnull @.str.106) #15
  unreachable

82:                                               ; preds = %79, %79, %tok_is_keyword.exit.thread
  call void @llvm.lifetime.end.p0(i64 1, ptr nonnull %4) #12
  ret ptr %5
}